; Function Attrs: nounwind uwtable
define ptr @l_Lean_Server_FileWorker_computeAbsoluteLspSemanticTokens(ptr noundef %0, ptr noundef %1, ptr noundef %2, ptr noundef readonly captures(none) %3) local_unnamed_addr #0 {
lean_dec.exit:
  %4 = getelementptr i8, ptr %3, i64 8
  %.val = load i64, ptr %4, align 8, !tbaa !4
  %5 = shl i64 %.val, 1
  %6 = or disjoint i64 %5, 1
  %7 = inttoptr i64 %6 to ptr
  %8 = tail call ptr @l_Array_filterMapM___at_Lean_Server_FileWorker_computeAbsoluteLspSemanticTokens___spec__1(ptr noundef %0, ptr noundef %1, ptr noundef %2, ptr noundef %3, ptr noundef nonnull inttoptr (i64 1 to ptr), ptr noundef nonnull %7)
  ret ptr %8
}